target datalayout = "e-m:e-p270:32:32-p271:32:32-p272:64:64-i64:64-i128:128-f80:128-n8:16:32:64-S128"
target triple = "x86_64-pc-linux-gnu"

%"struct.nanobind::detail::nb_internals" = type { ptr, ptr, ptr, ptr, ptr, ptr, %"struct.nanobind::detail::nb_maybe_atomic", ptr, i8, %"struct.nanobind::detail::nb_maybe_atomic", [1 x %"struct.nanobind::detail::nb_shard"], %"class.tsl::robin_map.3", %"class.tsl::robin_map.13", %"class.tsl::robin_map", %"struct.nanobind::detail::nb_translator_seq", i8, i8, ptr, i64 }
%"struct.nanobind::detail::nb_maybe_atomic" = type { ptr }
%"struct.nanobind::detail::nb_shard" = type { %"class.tsl::robin_map", %"class.tsl::robin_map" }
%"class.tsl::robin_map.3" = type { %"class.tsl::detail_robin_hash::robin_hash.4" }
%"class.tsl::detail_robin_hash::robin_hash.4" = type <{ %"class.tsl::rh::power_of_two_growth_policy", %"class.std::vector.7", ptr, i64, i64, i64, float, float, i8, i8, [6 x i8] }>
%"class.tsl::rh::power_of_two_growth_policy" = type { i64 }
%"class.std::vector.7" = type { %"struct.std::_Vector_base.8" }
%"struct.std::_Vector_base.8" = type { %"struct.std::_Vector_base<tsl::detail_robin_hash::bucket_entry<std::pair<const std::type_info *, nanobind::detail::type_data *>, true>, std::allocator<tsl::detail_robin_hash::bucket_entry<std::pair<const std::type_info *, nanobind::detail::type_data *>, true>>>::_Vector_impl" }
%"struct.std::_Vector_base<tsl::detail_robin_hash::bucket_entry<std::pair<const std::type_info *, nanobind::detail::type_data *>, true>, std::allocator<tsl::detail_robin_hash::bucket_entry<std::pair<const std::type_info *, nanobind::detail::type_data *>, true>>>::_Vector_impl" = type { %"struct.std::_Vector_base<tsl::detail_robin_hash::bucket_entry<std::pair<const std::type_info *, nanobind::detail::type_data *>, true>, std::allocator<tsl::detail_robin_hash::bucket_entry<std::pair<const std::type_info *, nanobind::detail::type_data *>, true>>>::_Vector_impl_data" }
%"struct.std::_Vector_base<tsl::detail_robin_hash::bucket_entry<std::pair<const std::type_info *, nanobind::detail::type_data *>, true>, std::allocator<tsl::detail_robin_hash::bucket_entry<std::pair<const std::type_info *, nanobind::detail::type_data *>, true>>>::_Vector_impl_data" = type { ptr, ptr, ptr }
%"class.tsl::robin_map.13" = type { %"class.tsl::detail_robin_hash::robin_hash.14" }
%"class.tsl::detail_robin_hash::robin_hash.14" = type <{ %"class.tsl::rh::power_of_two_growth_policy", %"class.std::vector.7", ptr, i64, i64, i64, float, float, i8, i8, [6 x i8] }>
%"class.tsl::robin_map" = type { %"class.tsl::detail_robin_hash::robin_hash" }
%"class.tsl::detail_robin_hash::robin_hash" = type <{ %"class.tsl::rh::power_of_two_growth_policy", %"class.std::vector.1", ptr, i64, i64, i64, float, float, i8, i8, [6 x i8] }>
%"class.std::vector.1" = type { %"struct.std::_Vector_base.2" }
%"struct.std::_Vector_base.2" = type { %"struct.std::_Vector_base<tsl::detail_robin_hash::bucket_entry<std::pair<void *, void *>, true>, std::allocator<tsl::detail_robin_hash::bucket_entry<std::pair<void *, void *>, true>>>::_Vector_impl" }
%"struct.std::_Vector_base<tsl::detail_robin_hash::bucket_entry<std::pair<void *, void *>, true>, std::allocator<tsl::detail_robin_hash::bucket_entry<std::pair<void *, void *>, true>>>::_Vector_impl" = type { %"struct.std::_Vector_base<tsl::detail_robin_hash::bucket_entry<std::pair<void *, void *>, true>, std::allocator<tsl::detail_robin_hash::bucket_entry<std::pair<void *, void *>, true>>>::_Vector_impl_data" }
%"struct.std::_Vector_base<tsl::detail_robin_hash::bucket_entry<std::pair<void *, void *>, true>, std::allocator<tsl::detail_robin_hash::bucket_entry<std::pair<void *, void *>, true>>>::_Vector_impl_data" = type { ptr, ptr, ptr }
%"struct.nanobind::detail::nb_translator_seq" = type { ptr, ptr, ptr }

@_ZN8nanobind6detail9internalsE = external hidden global ptr, align 8

; Function Attrs: mustprogress uwtable
define void @_ZN8nanobind6detail29register_exception_translatorEPFvRKNSt15__exception_ptr13exception_ptrEPvES5_(ptr noundef %0, ptr noundef %1) #1 {
  %3 = alloca ptr, align 8
  %4 = alloca ptr, align 8
  %5 = alloca ptr, align 8
  %6 = alloca ptr, align 8
  store ptr %0, ptr %3, align 8
  store ptr %1, ptr %4, align 8
  call void @llvm.lifetime.start.p0(i64 8, ptr %5) #3
  %7 = load ptr, ptr @_ZN8nanobind6detail9internalsE, align 8
  %8 = getelementptr inbounds nuw %"struct.nanobind::detail::nb_internals", ptr %7, i32 0, i32 14
  store ptr %8, ptr %5, align 8
  call void @llvm.lifetime.start.p0(i64 8, ptr %6) #3
  %9 = call noalias noundef nonnull ptr @_Znwm(i64 noundef 24) #28
  %10 = load ptr, ptr %5, align 8
  call void @llvm.memcpy.p0.p0.i64(ptr align 16 %9, ptr align 8 %10, i64 24, i1 false)
  store ptr %9, ptr %6, align 8
  %11 = load ptr, ptr %6, align 8
  %12 = load ptr, ptr %5, align 8
  %13 = getelementptr inbounds nuw %"struct.nanobind::detail::nb_translator_seq", ptr %12, i32 0, i32 2
  store ptr %11, ptr %13, align 8
  %14 = load ptr, ptr %4, align 8
  %15 = load ptr, ptr %5, align 8
  %16 = getelementptr inbounds nuw %"struct.nanobind::detail::nb_translator_seq", ptr %15, i32 0, i32 1
  store ptr %14, ptr %16, align 8
  %17 = load ptr, ptr %3, align 8
  %18 = load ptr, ptr %5, align 8
  %19 = getelementptr inbounds nuw %"struct.nanobind::detail::nb_translator_seq", ptr %18, i32 0, i32 0
  store ptr %17, ptr %19, align 8
  call void @llvm.lifetime.end.p0(i64 8, ptr %6) #3
  call void @llvm.lifetime.end.p0(i64 8, ptr %5) #3
  ret void
}