; Function Attrs: mustprogress uwtable
define void @_ZN8nanobind6detail29register_exception_translatorEPFvRKNSt15__exception_ptr13exception_ptrEPvES5_(ptr noundef %0, ptr noundef %1) local_unnamed_addr #2 {
  %3 = load ptr, ptr @_ZN8nanobind6detail9internalsE, align 8
  %4 = getelementptr inbounds nuw i8, ptr %3, i64 480
  %5 = tail call noalias noundef nonnull dereferenceable(24) ptr @_Znwm(i64 noundef 24) #32
  tail call void @llvm.memcpy.p0.p0.i64(ptr noundef nonnull align 16 dereferenceable(24) %5, ptr noundef nonnull align 8 dereferenceable(24) %4, i64 24, i1 false)
  %6 = getelementptr inbounds nuw i8, ptr %3, i64 496
  store ptr %5, ptr %6, align 8
  %7 = getelementptr inbounds nuw i8, ptr %3, i64 488
  store ptr %1, ptr %7, align 8
  store ptr %0, ptr %4, align 8
  ret void
}